target datalayout = "e-m:e-p270:32:32-p271:32:32-p272:64:64-i64:64-i128:128-f80:128-n8:16:32:64-S128"
target triple = "x86_64-pc-linux-gnu"

%struct.FunctionCallInfoBaseData = type { ptr, ptr, ptr, i32, i8, i16, [0 x %struct.NullableDatum] }
%struct.NullableDatum = type { i64, i8 }

; Function Attrs: inlinehint nounwind uwtable
define internal i64 @PointerGetDatum(ptr noundef %0) #2 {
  %2 = alloca ptr, align 8
  store ptr %0, ptr %2, align 8
  %3 = load ptr, ptr %2, align 8
  %4 = ptrtoint ptr %3 to i64
  ret i64 %4
}

; Function Attrs: inlinehint nounwind uwtable
define internal ptr @DatumGetPointer(i64 noundef %0) #2 {
  %2 = alloca i64, align 8
  store i64 %0, ptr %2, align 8
  %3 = load i64, ptr %2, align 8
  %4 = inttoptr i64 %3 to ptr
  ret ptr %4
}

; Function Attrs: nounwind uwtable
define dso_local i64 @array_replace(ptr noundef %0) #0 {
  %2 = alloca i64, align 8
  %3 = alloca ptr, align 8
  %4 = alloca ptr, align 8
  %5 = alloca i64, align 8
  %6 = alloca i8, align 1
  %7 = alloca i64, align 8
  %8 = alloca i8, align 1
  %9 = alloca i32, align 4
  store ptr %0, ptr %3, align 8
  call void @llvm.lifetime.start.p0(i64 8, ptr %4) #11
  call void @llvm.lifetime.start.p0(i64 8, ptr %5) #11
  %10 = load ptr, ptr %3, align 8
  %11 = getelementptr inbounds nuw %struct.FunctionCallInfoBaseData, ptr %10, i32 0, i32 6
  %12 = getelementptr inbounds [0 x %struct.NullableDatum], ptr %11, i64 0, i64 1
  %13 = getelementptr inbounds nuw %struct.NullableDatum, ptr %12, i32 0, i32 0
  %14 = load i64, ptr %13, align 8
  store i64 %14, ptr %5, align 8
  call void @llvm.lifetime.start.p0(i64 1, ptr %6) #11
  %15 = load ptr, ptr %3, align 8
  %16 = getelementptr inbounds nuw %struct.FunctionCallInfoBaseData, ptr %15, i32 0, i32 6
  %17 = getelementptr inbounds [0 x %struct.NullableDatum], ptr %16, i64 0, i64 1
  %18 = getelementptr inbounds nuw %struct.NullableDatum, ptr %17, i32 0, i32 1
  %19 = load i8, ptr %18, align 8, !range !4, !noundef !5
  %20 = trunc i8 %19 to i1
  %21 = zext i1 %20 to i8
  store i8 %21, ptr %6, align 1
  call void @llvm.lifetime.start.p0(i64 8, ptr %7) #11
  %22 = load ptr, ptr %3, align 8
  %23 = getelementptr inbounds nuw %struct.FunctionCallInfoBaseData, ptr %22, i32 0, i32 6
  %24 = getelementptr inbounds [0 x %struct.NullableDatum], ptr %23, i64 0, i64 2
  %25 = getelementptr inbounds nuw %struct.NullableDatum, ptr %24, i32 0, i32 0
  %26 = load i64, ptr %25, align 8
  store i64 %26, ptr %7, align 8
  call void @llvm.lifetime.start.p0(i64 1, ptr %8) #11
  %27 = load ptr, ptr %3, align 8
  %28 = getelementptr inbounds nuw %struct.FunctionCallInfoBaseData, ptr %27, i32 0, i32 6
  %29 = getelementptr inbounds [0 x %struct.NullableDatum], ptr %28, i64 0, i64 2
  %30 = getelementptr inbounds nuw %struct.NullableDatum, ptr %29, i32 0, i32 1
  %31 = load i8, ptr %30, align 8, !range !4, !noundef !5
  %32 = trunc i8 %31 to i1
  %33 = zext i1 %32 to i8
  store i8 %33, ptr %8, align 1
  %34 = load ptr, ptr %3, align 8
  %35 = getelementptr inbounds nuw %struct.FunctionCallInfoBaseData, ptr %34, i32 0, i32 6
  %36 = getelementptr inbounds [0 x %struct.NullableDatum], ptr %35, i64 0, i64 0
  %37 = getelementptr inbounds nuw %struct.NullableDatum, ptr %36, i32 0, i32 1
  %38 = load i8, ptr %37, align 8, !range !4, !noundef !5
  %39 = trunc i8 %38 to i1
  br i1 %39, label %40, label %46

40:                                               ; preds = %1
  br label %41

41:                                               ; preds = %40
  %42 = load ptr, ptr %3, align 8
  %43 = getelementptr inbounds nuw %struct.FunctionCallInfoBaseData, ptr %42, i32 0, i32 4
  store i8 1, ptr %43, align 4
  store i64 0, ptr %2, align 8
  store i32 1, ptr %9, align 4
  br label %68

44:                                               ; No predecessors!
  br label %45

45:                                               ; preds = %44
  br label %46

46:                                               ; preds = %45, %1
  %47 = load ptr, ptr %3, align 8
  %48 = getelementptr inbounds nuw %struct.FunctionCallInfoBaseData, ptr %47, i32 0, i32 6
  %49 = getelementptr inbounds [0 x %struct.NullableDatum], ptr %48, i64 0, i64 0
  %50 = getelementptr inbounds nuw %struct.NullableDatum, ptr %49, i32 0, i32 0
  %51 = load i64, ptr %50, align 8
  %52 = call ptr @DatumGetPointer(i64 noundef %51)
  %53 = call ptr @pg_detoast_datum(ptr noundef %52)
  store ptr %53, ptr %4, align 8
  %54 = load ptr, ptr %4, align 8
  %55 = load i64, ptr %5, align 8
  %56 = load i8, ptr %6, align 1, !range !4, !noundef !5
  %57 = trunc i8 %56 to i1
  %58 = load i64, ptr %7, align 8
  %59 = load i8, ptr %8, align 1, !range !4, !noundef !5
  %60 = trunc i8 %59 to i1
  %61 = load ptr, ptr %3, align 8
  %62 = getelementptr inbounds nuw %struct.FunctionCallInfoBaseData, ptr %61, i32 0, i32 3
  %63 = load i32, ptr %62, align 8
  %64 = load ptr, ptr %3, align 8
  %65 = call ptr @array_replace_internal(ptr noundef %54, i64 noundef %55, i1 noundef zeroext %57, i64 noundef %58, i1 noundef zeroext %60, i1 noundef zeroext false, i32 noundef %63, ptr noundef %64)
  store ptr %65, ptr %4, align 8
  %66 = load ptr, ptr %4, align 8
  %67 = call i64 @PointerGetDatum(ptr noundef %66)
  store i64 %67, ptr %2, align 8
  store i32 1, ptr %9, align 4
  br label %68

68:                                               ; preds = %46, %41
  call void @llvm.lifetime.end.p0(i64 1, ptr %8) #11
  call void @llvm.lifetime.end.p0(i64 8, ptr %7) #11
  call void @llvm.lifetime.end.p0(i64 1, ptr %6) #11
  call void @llvm.lifetime.end.p0(i64 8, ptr %5) #11
  call void @llvm.lifetime.end.p0(i64 8, ptr %4) #11
  %69 = load i64, ptr %2, align 8
  ret i64 %69
}