; Function Attrs: nounwind uwtable
define dso_local noundef i64 @array_replace(ptr noundef captures(none) %0) local_unnamed_addr #0 {
  %2 = getelementptr inbounds nuw i8, ptr %0, i64 40
  %3 = load i8, ptr %2, align 8, !range !4, !noundef !5
  %4 = trunc nuw i8 %3 to i1
  br i1 %4, label %5, label %7

5:                                                ; preds = %1
  %6 = getelementptr inbounds nuw i8, ptr %0, i64 28
  store i8 1, ptr %6, align 4
  br label %26

7:                                                ; preds = %1
  %8 = getelementptr inbounds nuw i8, ptr %0, i64 32
  %9 = getelementptr inbounds nuw i8, ptr %0, i64 72
  %10 = load i8, ptr %9, align 8, !range !4, !noundef !5
  %11 = trunc nuw i8 %10 to i1
  %12 = getelementptr inbounds nuw i8, ptr %0, i64 64
  %13 = load i64, ptr %12, align 8
  %14 = getelementptr inbounds nuw i8, ptr %0, i64 56
  %15 = load i8, ptr %14, align 8, !range !4, !noundef !5
  %16 = trunc nuw i8 %15 to i1
  %17 = getelementptr inbounds nuw i8, ptr %0, i64 48
  %18 = load i64, ptr %17, align 8
  %19 = load i64, ptr %8, align 8
  %20 = inttoptr i64 %19 to ptr
  %21 = tail call ptr @pg_detoast_datum(ptr noundef %20) #18
  %22 = getelementptr inbounds nuw i8, ptr %0, i64 24
  %23 = load i32, ptr %22, align 8
  %24 = tail call fastcc ptr @array_replace_internal(ptr noundef %21, i64 noundef %18, i1 noundef zeroext %16, i64 noundef %13, i1 noundef zeroext %11, i1 noundef zeroext false, i32 noundef %23, ptr noundef nonnull %0)
  %25 = ptrtoint ptr %24 to i64
  br label %26

26:                                               ; preds = %7, %5
  %.0 = phi i64 [ 0, %5 ], [ %25, %7 ]
  ret i64 %.0
}